; Function Attrs: mustprogress nounwind uwtable
define internal fastcc noundef ptr @_ZN12_GLOBAL__N_117ScalarExprEmitter14VisitEmbedExprEPN5clang9EmbedExprE(ptr readonly captures(none) %.8.val, ptr noundef %0) unnamed_addr #0 align 2 {
  %2 = alloca %"class.clang::EmbedExpr::ChildElementIter", align 8
  %3 = alloca %"class.llvm::APInt", align 8
  %4 = getelementptr inbounds nuw i8, ptr %0, i64 48
  %5 = load i32, ptr %4, align 8
  %6 = zext i32 %5 to i64
  store ptr %0, ptr %2, align 8
  %7 = getelementptr inbounds nuw i8, ptr %2, i64 8
  store i64 %6, ptr %7, align 8
  %8 = call noundef nonnull align 8 dereferenceable(8) ptr @_ZNK5clang9EmbedExpr16ChildElementIterILb0EEdeEv(ptr noundef nonnull align 8 dereferenceable(16) %2)
  %9 = load ptr, ptr %8, align 8
  %10 = getelementptr inbounds nuw i8, ptr %9, i64 16
  call void @llvm.experimental.noalias.scope.decl(metadata !205)
  call void @llvm.experimental.noalias.scope.decl(metadata !208)
  %11 = getelementptr inbounds nuw i8, ptr %9, i64 24
  %12 = load i32, ptr %11, align 8, !noalias !211
  %13 = icmp ugt i32 %12, 64
  br i1 %13, label %14, label %20

14:                                               ; preds = %1
  %15 = zext i32 %12 to i64
  %16 = add nuw nsw i64 %15, 63
  %17 = lshr i64 %16, 6
  %18 = trunc nuw nsw i64 %17 to i32
  %19 = load ptr, ptr %10, align 8, !noalias !211
  call void @_ZN4llvm5APIntC1EjjPKm(ptr noundef nonnull align 8 dereferenceable(12) %3, i32 noundef %12, i32 noundef %18, ptr noundef %19) #19
  br label %_ZNK5clang12APIntStorage8getValueEv.exit

20:                                               ; preds = %1
  %21 = load i64, ptr %10, align 8, !noalias !211
  %22 = getelementptr inbounds nuw i8, ptr %3, i64 8
  store i32 %12, ptr %22, align 8, !alias.scope !211
  %23 = add nuw nsw i32 %12, 63
  %24 = and i32 %23, 63
  %25 = xor i32 %24, 63
  %26 = zext nneg i32 %25 to i64
  %27 = lshr i64 -1, %26
  %28 = icmp eq i32 %12, 0
  %spec.store.select.i.i.i.i = select i1 %28, i64 0, i64 %27
  %29 = and i64 %21, %spec.store.select.i.i.i.i
  store i64 %29, ptr %3, align 8, !alias.scope !211
  br label %_ZNK5clang12APIntStorage8getValueEv.exit

_ZNK5clang12APIntStorage8getValueEv.exit:         ; preds = %14, %20
  %30 = getelementptr inbounds nuw i8, ptr %.8.val, i64 72
  %31 = load ptr, ptr %30, align 8
  %32 = call noundef ptr @_ZN4llvm11ConstantInt3getERNS_11LLVMContextERKNS_5APIntE(ptr noundef nonnull align 8 dereferenceable(8) %31, ptr noundef nonnull align 8 dereferenceable(12) %3) #19
  %33 = getelementptr inbounds nuw i8, ptr %3, i64 8
  %34 = load i32, ptr %33, align 8
  %35 = icmp ugt i32 %34, 64
  br i1 %35, label %36, label %_ZN4llvm5APIntD2Ev.exit

36:                                               ; preds = %_ZNK5clang12APIntStorage8getValueEv.exit
  %37 = load ptr, ptr %3, align 8
  %38 = icmp eq ptr %37, null
  br i1 %38, label %_ZN4llvm5APIntD2Ev.exit, label %39

39:                                               ; preds = %36
  call void @_ZdaPv(ptr noundef nonnull %37) #23
  br label %_ZN4llvm5APIntD2Ev.exit

_ZN4llvm5APIntD2Ev.exit:                          ; preds = %_ZNK5clang12APIntStorage8getValueEv.exit, %36, %39
  ret ptr %32
}